; Function Attrs: mustprogress uwtable
define noundef i32 @_Z9prec2ndecf(float noundef %0) local_unnamed_addr #2 personality ptr @__gxx_personality_v0 {
  %2 = alloca %"class.std::filesystem::__cxx11::path", align 8
  %3 = fcmp ugt float %0, 0.000000e+00
  br i1 %3, label %9, label %4

4:                                                ; preds = %1
  call void @_ZNSt10filesystem7__cxx114pathC2IA122_cS1_EERKT_NS1_6formatE(ptr noundef nonnull align 8 dereferenceable(40) %2, ptr noundef nonnull align 1 dereferenceable(122) @.str.2, i8 noundef zeroext 2)
  %5 = fpext float %0 to double
  invoke void (i32, ptr, i32, ptr, ...) @_Z9gmx_fataliRKNSt10filesystem7__cxx114pathEiPKcz(i32 noundef 0, ptr noundef nonnull align 8 dereferenceable(40) %2, i32 noundef 229, ptr noundef nonnull @.str.3, double noundef %5) #19
          to label %6 unwind label %7

6:                                                ; preds = %4
  unreachable

7:                                                ; preds = %4
  %8 = landingpad { ptr, i32 }
          cleanup
  call void @_ZNSt10filesystem7__cxx114pathD2Ev(ptr noundef nonnull align 8 dereferenceable(40) %2) #18
  resume { ptr, i32 } %8

9:                                                ; preds = %1
  %10 = tail call noundef float @logf(float noundef %0) #18
  %11 = fpext float %10 to double
  %12 = fdiv double %11, 0x40026BB1BBB55516
  %13 = tail call double @llvm.rint.f64(double %12)
  %14 = fptosi double %13 to i32
  ret i32 %14
}